target datalayout = "e-m:e-p270:32:32-p271:32:32-p272:64:64-i64:64-i128:128-f80:128-n8:16:32:64-S128"
target triple = "x86_64-pc-linux-gnu"

%struct.PKCS12_st = type { ptr, ptr, ptr }
%struct.pkcs7_st = type { ptr, i64, i32, i32, ptr, %union.anon, %struct.PKCS7_CTX_st }
%union.anon = type { ptr }
%struct.PKCS7_CTX_st = type { ptr, ptr }

@PKCS12_it.local_it = internal constant { i8, [7 x i8], i64, ptr, i64, ptr, i64, ptr } { i8 1, [7 x i8] zeroinitializer, i64 16, ptr @PKCS12_seq_tt, i64 3, ptr null, i64 24, ptr @.str }, align 8
@.str.1 = private unnamed_addr constant [35 x i8] c"../openssl/crypto/pkcs12/p12_asn.c\00", align 1

; Function Attrs: nounwind uwtable
define ptr @PKCS12_it() #0 {
  ret ptr @PKCS12_it.local_it
}

; Function Attrs: nounwind uwtable
define void @PKCS12_free(ptr noundef %0) #0 {
  %2 = alloca ptr, align 8
  store ptr %0, ptr %2, align 8, !tbaa !12
  %3 = load ptr, ptr %2, align 8, !tbaa !12
  %4 = icmp ne ptr %3, null
  br i1 %4, label %5, label %22

5:                                                ; preds = %1
  %6 = load ptr, ptr %2, align 8, !tbaa !12
  %7 = getelementptr inbounds nuw %struct.PKCS12_st, ptr %6, i32 0, i32 2
  %8 = load ptr, ptr %7, align 8, !tbaa !14
  %9 = icmp ne ptr %8, null
  br i1 %9, label %10, label %22

10:                                               ; preds = %5
  %11 = load ptr, ptr %2, align 8, !tbaa !12
  %12 = getelementptr inbounds nuw %struct.PKCS12_st, ptr %11, i32 0, i32 2
  %13 = load ptr, ptr %12, align 8, !tbaa !14
  %14 = getelementptr inbounds nuw %struct.pkcs7_st, ptr %13, i32 0, i32 6
  %15 = getelementptr inbounds nuw %struct.PKCS7_CTX_st, ptr %14, i32 0, i32 1
  %16 = load ptr, ptr %15, align 8, !tbaa !19
  call void @CRYPTO_free(ptr noundef %16, ptr noundef @.str.1, i32 noundef 35)
  %17 = load ptr, ptr %2, align 8, !tbaa !12
  %18 = getelementptr inbounds nuw %struct.PKCS12_st, ptr %17, i32 0, i32 2
  %19 = load ptr, ptr %18, align 8, !tbaa !14
  %20 = getelementptr inbounds nuw %struct.pkcs7_st, ptr %19, i32 0, i32 6
  %21 = getelementptr inbounds nuw %struct.PKCS7_CTX_st, ptr %20, i32 0, i32 1
  store ptr null, ptr %21, align 8, !tbaa !19
  br label %22

22:                                               ; preds = %10, %5, %1
  %23 = load ptr, ptr %2, align 8, !tbaa !12
  %24 = call ptr @PKCS12_it()
  call void @ASN1_item_free(ptr noundef %23, ptr noundef %24)
  ret void
}