; Function Attrs: nounwind uwtable
define void @PKCS12_free(ptr noundef %0) local_unnamed_addr #1 {
  %.not = icmp eq ptr %0, null
  br i1 %.not, label %10, label %2

2:                                                ; preds = %1
  %3 = getelementptr inbounds nuw i8, ptr %0, i64 16
  %4 = load ptr, ptr %3, align 8, !tbaa !3
  %.not6 = icmp eq ptr %4, null
  br i1 %.not6, label %10, label %5

5:                                                ; preds = %2
  %6 = getelementptr inbounds nuw i8, ptr %4, i64 48
  %7 = load ptr, ptr %6, align 8, !tbaa !11
  tail call void @CRYPTO_free(ptr noundef %7, ptr noundef nonnull @.str.1, i32 noundef 35) #3
  %8 = load ptr, ptr %3, align 8, !tbaa !3
  %9 = getelementptr inbounds nuw i8, ptr %8, i64 48
  store ptr null, ptr %9, align 8, !tbaa !11
  br label %10

10:                                               ; preds = %5, %2, %1
  tail call void @ASN1_item_free(ptr noundef %0, ptr noundef nonnull @PKCS12_it.local_it) #3
  ret void
}